target datalayout = "e-m:e-p270:32:32-p271:32:32-p272:64:64-i64:64-i128:128-f80:128-n8:16:32:64-S128"
target triple = "x86_64-pc-linux-gnu"

%struct.OSSL_TIME = type { i64 }
%struct.quic_reactor_st = type { %struct.bio_poll_descriptor_st, %struct.bio_poll_descriptor_st, %struct.OSSL_TIME, ptr, ptr, ptr, %struct.rio_notifier_st, ptr, i64, i8 }
%struct.bio_poll_descriptor_st = type { i32, %union.anon }
%union.anon = type { ptr }
%struct.rio_notifier_st = type { i32, i32 }

; Function Attrs: nounwind uwtable
define void @ossl_quic_reactor_cleanup(ptr noundef %0) #0 {
  %2 = alloca ptr, align 8
  store ptr %0, ptr %2, align 8, !tbaa !3
  %3 = load ptr, ptr %2, align 8, !tbaa !3
  %4 = icmp eq ptr %3, null
  br i1 %4, label %5, label %6

5:                                                ; preds = %1
  br label %24

6:                                                ; preds = %1
  %7 = load ptr, ptr %2, align 8, !tbaa !3
  %8 = getelementptr inbounds nuw %struct.quic_reactor_st, ptr %7, i32 0, i32 9
  %9 = load i8, ptr %8, align 8
  %10 = lshr i8 %9, 4
  %11 = and i8 %10, 1
  %12 = zext i8 %11 to i32
  %13 = icmp ne i32 %12, 0
  br i1 %13, label %14, label %24

14:                                               ; preds = %6
  %15 = load ptr, ptr %2, align 8, !tbaa !3
  %16 = getelementptr inbounds nuw %struct.quic_reactor_st, ptr %15, i32 0, i32 6
  call void @ossl_rio_notifier_cleanup(ptr noundef %16)
  %17 = load ptr, ptr %2, align 8, !tbaa !3
  %18 = getelementptr inbounds nuw %struct.quic_reactor_st, ptr %17, i32 0, i32 9
  %19 = load i8, ptr %18, align 8
  %20 = and i8 %19, -17
  %21 = or i8 %20, 0
  store i8 %21, ptr %18, align 8
  %22 = load ptr, ptr %2, align 8, !tbaa !3
  %23 = getelementptr inbounds nuw %struct.quic_reactor_st, ptr %22, i32 0, i32 7
  call void @ossl_crypto_condvar_free(ptr noundef %23)
  br label %24

24:                                               ; preds = %5, %14, %6
  ret void
}