; Function Attrs: nounwind uwtable
define void @ossl_quic_reactor_cleanup(ptr noundef %0) local_unnamed_addr #0 {
  %2 = icmp eq ptr %0, null
  br i1 %2, label %12, label %3

3:                                                ; preds = %1
  %4 = getelementptr inbounds nuw i8, ptr %0, i64 88
  %5 = load i8, ptr %4, align 8
  %6 = and i8 %5, 16
  %.not = icmp eq i8 %6, 0
  br i1 %.not, label %12, label %7

7:                                                ; preds = %3
  %8 = getelementptr inbounds nuw i8, ptr %0, i64 64
  tail call void @ossl_rio_notifier_cleanup(ptr noundef nonnull %8) #10
  %9 = load i8, ptr %4, align 8
  %10 = and i8 %9, -17
  store i8 %10, ptr %4, align 8
  %11 = getelementptr inbounds nuw i8, ptr %0, i64 72
  tail call void @ossl_crypto_condvar_free(ptr noundef nonnull %11) #10
  br label %12

12:                                               ; preds = %1, %7, %3
  ret void
}